; Function Attrs: mustprogress nofree norecurse nosync nounwind willreturn memory(read, argmem: readwrite, inaccessiblemem: none) uwtable
define ptr @Cudd_addNand(ptr noundef readonly captures(none) %0, ptr noundef captures(none) %1, ptr noundef captures(none) %2) local_unnamed_addr #3 {
  %4 = load ptr, ptr %1, align 8, !tbaa !26
  %5 = load ptr, ptr %2, align 8, !tbaa !26
  %6 = getelementptr inbounds nuw i8, ptr %0, i64 48
  %7 = load ptr, ptr %6, align 8, !tbaa !32
  %8 = icmp eq ptr %4, %7
  %9 = icmp eq ptr %5, %7
  %or.cond = select i1 %8, i1 true, i1 %9
  br i1 %or.cond, label %10, label %13

10:                                               ; preds = %3
  %11 = getelementptr inbounds nuw i8, ptr %0, i64 40
  %12 = load ptr, ptr %11, align 8, !tbaa !33
  br label %22

13:                                               ; preds = %3
  %14 = load i32, ptr %4, align 8, !tbaa !27
  %15 = icmp eq i32 %14, 2147483647
  br i1 %15, label %16, label %19

16:                                               ; preds = %13
  %17 = load i32, ptr %5, align 8, !tbaa !27
  %18 = icmp eq i32 %17, 2147483647
  br i1 %18, label %22, label %19

19:                                               ; preds = %16, %13
  %20 = icmp ugt ptr %4, %5
  br i1 %20, label %21, label %22

21:                                               ; preds = %19
  store ptr %5, ptr %1, align 8, !tbaa !26
  store ptr %4, ptr %2, align 8, !tbaa !26
  br label %22

22:                                               ; preds = %19, %21, %16, %10
  %.0 = phi ptr [ %12, %10 ], [ %7, %16 ], [ null, %21 ], [ null, %19 ]
  ret ptr %.0
}